(lp0
S'01.06.2016.csv'
p1
a.(lp0
S'02.06.2016.csv'
p1
a.(lp0
S'03.06.2016.csv'
p1
a.(lp0
S'04.06.2016.csv'
p1
a.(lp0
S'05.06.2016.csv'
p1
a.(lp0
S'06.06.2016.csv'
p1
a.(lp0
S'07.06.2016.csv'
p1
a.(lp0
S'08.06.2016.csv'
p1
a.(lp0
S'09.06.2016.csv'
p1
a.(lp0
S'10.06.2016.csv'
p1
a.(lp0
S'11.06.2016.csv'
p1
a.(lp0
S'12.06.2016.csv'
p1
a.(lp0
S'13.06.2016.csv'
p1
a.(lp0
S'14.06.2016.csv'
p1
a.(lp0
S'15.06.2016.csv'
p1
a.(lp0
S'16.06.2016.csv'
p1
a.(lp0
S'17.06.2016.csv'
p1
a.(lp0
S'18.06.2016.csv'
p1
a.(lp0
S'19.06.2016.csv'
p1
a.(lp0
S'20.06.2016.csv'
p1
a.(lp0
S'21.06.2016.csv'
p1
a.(lp0
S'22.06.2016.csv'
p1
a.(lp0
S'23.06.2016.csv'
p1
a.(lp0
S'24.06.2016.csv'
p1
a.(lp0
S'25.06.2016.csv'
p1
a.(lp0
S'26.06.2016.csv'
p1
a.(lp0
S'27.06.2016.csv'
p1
a.(lp0
S'28.06.2016.csv'
p1
a.